target datalayout = "e-m:e-p270:32:32-p271:32:32-p272:64:64-i64:64-i128:128-f80:128-n8:16:32:64-S128"
target triple = "x86_64-pc-linux-gnu"

; Function Attrs: nounwind uwtable
define i32 @sws_test_colorspace(i32 noundef %0, i32 noundef %1) #0 {
  %3 = alloca i32, align 4
  %4 = alloca i32, align 4
  %5 = alloca i32, align 4
  store i32 %0, ptr %4, align 4, !tbaa !4
  store i32 %1, ptr %5, align 4, !tbaa !4
  %6 = load i32, ptr %4, align 4, !tbaa !4
  switch i32 %6, label %8 [
    i32 2, label %7
    i32 0, label %7
    i32 1, label %7
    i32 5, label %7
    i32 6, label %7
    i32 4, label %7
    i32 7, label %7
    i32 9, label %7
  ]

7:                                                ; preds = %2, %2, %2, %2, %2, %2, %2, %2
  store i32 1, ptr %3, align 4
  br label %9

8:                                                ; preds = %2
  store i32 0, ptr %3, align 4
  br label %9

9:                                                ; preds = %8, %7
  %10 = load i32, ptr %3, align 4
  ret i32 %10
}