; Function Attrs: mustprogress nofree norecurse nosync nounwind willreturn memory(none) uwtable
define range(i32 0, 2) i32 @sws_test_colorspace(i32 noundef %0, i32 noundef %1) local_unnamed_addr #0 {
  %3 = icmp ult i32 %0, 10
  br i1 %3, label %switch.lookup, label %5

switch.lookup:                                    ; preds = %2
  %4 = zext nneg i32 %0 to i64
  %switch.gep = getelementptr inbounds nuw [10 x i32], ptr @switch.table.sws_test_colorspace, i64 0, i64 %4
  %switch.load = load i32, ptr %switch.gep, align 4
  br label %5

5:                                                ; preds = %2, %switch.lookup
  %.0 = phi i32 [ %switch.load, %switch.lookup ], [ 0, %2 ]
  ret i32 %.0
}